target datalayout = "e-m:e-p270:32:32-p271:32:32-p272:64:64-i64:64-i128:128-f80:128-n8:16:32:64-S128"
target triple = "x86_64-pc-linux-gnu"

%"struct.Luau::FValue" = type { i8, i8, ptr, ptr }
%"struct.Luau::CodeGen::IrOp" = type { i32 }
%"struct.Luau::CodeGen::IrFunction" = type { %"class.std::vector", %"class.std::vector.0", %"class.std::vector.5", %"class.std::vector.10", %"class.std::vector.15", %"class.std::vector.20", i32, i32, %"class.std::vector.25", %"class.std::vector.30", %"struct.Luau::CodeGen::BytecodeTypeInfo", ptr, i8, %"struct.Luau::CodeGen::CfgInfo" }
%"class.std::vector" = type { %"struct.std::_Vector_base" }
%"struct.std::_Vector_base" = type { %"struct.std::_Vector_base<Luau::CodeGen::IrBlock, std::allocator<Luau::CodeGen::IrBlock>>::_Vector_impl" }
%"struct.std::_Vector_base<Luau::CodeGen::IrBlock, std::allocator<Luau::CodeGen::IrBlock>>::_Vector_impl" = type { %"struct.std::_Vector_base<Luau::CodeGen::IrBlock, std::allocator<Luau::CodeGen::IrBlock>>::_Vector_impl_data" }
%"struct.std::_Vector_base<Luau::CodeGen::IrBlock, std::allocator<Luau::CodeGen::IrBlock>>::_Vector_impl_data" = type { ptr, ptr, ptr }
%"class.std::vector.0" = type { %"struct.std::_Vector_base.1" }
%"struct.std::_Vector_base.1" = type { %"struct.std::_Vector_base<Luau::CodeGen::IrInst, std::allocator<Luau::CodeGen::IrInst>>::_Vector_impl" }
%"struct.std::_Vector_base<Luau::CodeGen::IrInst, std::allocator<Luau::CodeGen::IrInst>>::_Vector_impl" = type { %"struct.std::_Vector_base<Luau::CodeGen::IrInst, std::allocator<Luau::CodeGen::IrInst>>::_Vector_impl_data" }
%"struct.std::_Vector_base<Luau::CodeGen::IrInst, std::allocator<Luau::CodeGen::IrInst>>::_Vector_impl_data" = type { ptr, ptr, ptr }
%"class.std::vector.5" = type { %"struct.std::_Vector_base.6" }
%"struct.std::_Vector_base.6" = type { %"struct.std::_Vector_base<Luau::CodeGen::IrConst, std::allocator<Luau::CodeGen::IrConst>>::_Vector_impl" }
%"struct.std::_Vector_base<Luau::CodeGen::IrConst, std::allocator<Luau::CodeGen::IrConst>>::_Vector_impl" = type { %"struct.std::_Vector_base<Luau::CodeGen::IrConst, std::allocator<Luau::CodeGen::IrConst>>::_Vector_impl_data" }
%"struct.std::_Vector_base<Luau::CodeGen::IrConst, std::allocator<Luau::CodeGen::IrConst>>::_Vector_impl_data" = type { ptr, ptr, ptr }
%"class.std::vector.10" = type { %"struct.std::_Vector_base.11" }
%"struct.std::_Vector_base.11" = type { %"struct.std::_Vector_base<Luau::CodeGen::BytecodeBlock, std::allocator<Luau::CodeGen::BytecodeBlock>>::_Vector_impl" }
%"struct.std::_Vector_base<Luau::CodeGen::BytecodeBlock, std::allocator<Luau::CodeGen::BytecodeBlock>>::_Vector_impl" = type { %"struct.std::_Vector_base<Luau::CodeGen::BytecodeBlock, std::allocator<Luau::CodeGen::BytecodeBlock>>::_Vector_impl_data" }
%"struct.std::_Vector_base<Luau::CodeGen::BytecodeBlock, std::allocator<Luau::CodeGen::BytecodeBlock>>::_Vector_impl_data" = type { ptr, ptr, ptr }
%"class.std::vector.15" = type { %"struct.std::_Vector_base.16" }
%"struct.std::_Vector_base.16" = type { %"struct.std::_Vector_base<Luau::CodeGen::BytecodeTypes, std::allocator<Luau::CodeGen::BytecodeTypes>>::_Vector_impl" }
%"struct.std::_Vector_base<Luau::CodeGen::BytecodeTypes, std::allocator<Luau::CodeGen::BytecodeTypes>>::_Vector_impl" = type { %"struct.std::_Vector_base<Luau::CodeGen::BytecodeTypes, std::allocator<Luau::CodeGen::BytecodeTypes>>::_Vector_impl_data" }
%"struct.std::_Vector_base<Luau::CodeGen::BytecodeTypes, std::allocator<Luau::CodeGen::BytecodeTypes>>::_Vector_impl_data" = type { ptr, ptr, ptr }
%"class.std::vector.20" = type { %"struct.std::_Vector_base.21" }
%"struct.std::_Vector_base.21" = type { %"struct.std::_Vector_base<Luau::CodeGen::BytecodeMapping, std::allocator<Luau::CodeGen::BytecodeMapping>>::_Vector_impl" }
%"struct.std::_Vector_base<Luau::CodeGen::BytecodeMapping, std::allocator<Luau::CodeGen::BytecodeMapping>>::_Vector_impl" = type { %"struct.std::_Vector_base<Luau::CodeGen::BytecodeMapping, std::allocator<Luau::CodeGen::BytecodeMapping>>::_Vector_impl_data" }
%"struct.std::_Vector_base<Luau::CodeGen::BytecodeMapping, std::allocator<Luau::CodeGen::BytecodeMapping>>::_Vector_impl_data" = type { ptr, ptr, ptr }
%"class.std::vector.25" = type { %"struct.std::_Vector_base.26" }
%"struct.std::_Vector_base.26" = type { %"struct.std::_Vector_base<Luau::CodeGen::IrOp, std::allocator<Luau::CodeGen::IrOp>>::_Vector_impl" }
%"struct.std::_Vector_base<Luau::CodeGen::IrOp, std::allocator<Luau::CodeGen::IrOp>>::_Vector_impl" = type { %"struct.std::_Vector_base<Luau::CodeGen::IrOp, std::allocator<Luau::CodeGen::IrOp>>::_Vector_impl_data" }
%"struct.std::_Vector_base<Luau::CodeGen::IrOp, std::allocator<Luau::CodeGen::IrOp>>::_Vector_impl_data" = type { ptr, ptr, ptr }
%"class.std::vector.30" = type { %"struct.std::_Vector_base.31" }
%"struct.std::_Vector_base.31" = type { %"struct.std::_Vector_base<unsigned int, std::allocator<unsigned int>>::_Vector_impl" }
%"struct.std::_Vector_base<unsigned int, std::allocator<unsigned int>>::_Vector_impl" = type { %"struct.std::_Vector_base<unsigned int, std::allocator<unsigned int>>::_Vector_impl_data" }
%"struct.std::_Vector_base<unsigned int, std::allocator<unsigned int>>::_Vector_impl_data" = type { ptr, ptr, ptr }
%"struct.Luau::CodeGen::BytecodeTypeInfo" = type { %"class.std::vector.35", %"class.std::vector.40", %"class.std::vector.35", %"class.std::vector.30" }
%"class.std::vector.40" = type { %"struct.std::_Vector_base.41" }
%"struct.std::_Vector_base.41" = type { %"struct.std::_Vector_base<Luau::CodeGen::BytecodeRegTypeInfo, std::allocator<Luau::CodeGen::BytecodeRegTypeInfo>>::_Vector_impl" }
%"struct.std::_Vector_base<Luau::CodeGen::BytecodeRegTypeInfo, std::allocator<Luau::CodeGen::BytecodeRegTypeInfo>>::_Vector_impl" = type { %"struct.std::_Vector_base<Luau::CodeGen::BytecodeRegTypeInfo, std::allocator<Luau::CodeGen::BytecodeRegTypeInfo>>::_Vector_impl_data" }
%"struct.std::_Vector_base<Luau::CodeGen::BytecodeRegTypeInfo, std::allocator<Luau::CodeGen::BytecodeRegTypeInfo>>::_Vector_impl_data" = type { ptr, ptr, ptr }
%"class.std::vector.35" = type { %"struct.std::_Vector_base.36" }
%"struct.std::_Vector_base.36" = type { %"struct.std::_Vector_base<unsigned char, std::allocator<unsigned char>>::_Vector_impl" }
%"struct.std::_Vector_base<unsigned char, std::allocator<unsigned char>>::_Vector_impl" = type { %"struct.std::_Vector_base<unsigned char, std::allocator<unsigned char>>::_Vector_impl_data" }
%"struct.std::_Vector_base<unsigned char, std::allocator<unsigned char>>::_Vector_impl_data" = type { ptr, ptr, ptr }
%"struct.Luau::CodeGen::CfgInfo" = type { %"class.std::vector.30", %"class.std::vector.30", %"class.std::vector.30", %"class.std::vector.30", %"class.std::vector.30", %"class.std::vector.30", %"class.std::vector.30", %"class.std::vector.45", %"class.std::vector.50", %"class.std::vector.50", %"class.std::vector.50", %"struct.Luau::CodeGen::RegisterSet" }
%"class.std::vector.45" = type { %"struct.std::_Vector_base.46" }
%"struct.std::_Vector_base.46" = type { %"struct.std::_Vector_base<Luau::CodeGen::BlockOrdering, std::allocator<Luau::CodeGen::BlockOrdering>>::_Vector_impl" }
%"struct.std::_Vector_base<Luau::CodeGen::BlockOrdering, std::allocator<Luau::CodeGen::BlockOrdering>>::_Vector_impl" = type { %"struct.std::_Vector_base<Luau::CodeGen::BlockOrdering, std::allocator<Luau::CodeGen::BlockOrdering>>::_Vector_impl_data" }
%"struct.std::_Vector_base<Luau::CodeGen::BlockOrdering, std::allocator<Luau::CodeGen::BlockOrdering>>::_Vector_impl_data" = type { ptr, ptr, ptr }
%"class.std::vector.50" = type { %"struct.std::_Vector_base.51" }
%"struct.std::_Vector_base.51" = type { %"struct.std::_Vector_base<Luau::CodeGen::RegisterSet, std::allocator<Luau::CodeGen::RegisterSet>>::_Vector_impl" }
%"struct.std::_Vector_base<Luau::CodeGen::RegisterSet, std::allocator<Luau::CodeGen::RegisterSet>>::_Vector_impl" = type { %"struct.std::_Vector_base<Luau::CodeGen::RegisterSet, std::allocator<Luau::CodeGen::RegisterSet>>::_Vector_impl_data" }
%"struct.std::_Vector_base<Luau::CodeGen::RegisterSet, std::allocator<Luau::CodeGen::RegisterSet>>::_Vector_impl_data" = type { ptr, ptr, ptr }
%"struct.Luau::CodeGen::RegisterSet" = type <{ %"class.std::bitset", i8, i8, [6 x i8] }>
%"class.std::bitset" = type { %"struct.std::_Base_bitset" }
%"struct.std::_Base_bitset" = type { [4 x i64] }
%"struct.Luau::CodeGen::IrInst" = type <{ i8, [3 x i8], %"struct.Luau::CodeGen::IrOp", %"struct.Luau::CodeGen::IrOp", %"struct.Luau::CodeGen::IrOp", %"struct.Luau::CodeGen::IrOp", %"struct.Luau::CodeGen::IrOp", %"struct.Luau::CodeGen::IrOp", %"struct.Luau::CodeGen::IrOp", i32, i16, %"struct.Luau::CodeGen::X64::RegisterX64", %"struct.Luau::CodeGen::A64::RegisterA64", i8, i8, i8, i8 }>
%"struct.Luau::CodeGen::X64::RegisterX64" = type { i8 }
%"struct.Luau::CodeGen::A64::RegisterA64" = type { i8 }

@_ZN5FFlag16LuauCodegenInstGE = dso_local global %"struct.Luau::FValue" zeroinitializer, align 8

; Function Attrs: mustprogress nounwind uwtable
define linkonce_odr dso_local noundef zeroext i1 @_ZN4Luau7CodeGen8isPseudoENS0_5IrCmdE(i8 noundef zeroext %0) #1 comdat {
  %2 = alloca i8, align 1
  store i8 %0, ptr %2, align 1
  %3 = load i8, ptr %2, align 1
  %4 = icmp eq i8 %3, 0
  br i1 %4, label %8, label %5

5:                                                ; preds = %1
  %6 = load i8, ptr %2, align 1
  %7 = icmp eq i8 %6, 115
  br label %8

8:                                                ; preds = %5, %1
  %9 = phi i1 [ true, %1 ], [ %7, %5 ]
  ret i1 %9
}

; Function Attrs: mustprogress nounwind uwtable
define linkonce_odr dso_local noundef nonnull align 4 dereferenceable(43) ptr @_ZNSt6vectorIN4Luau7CodeGen6IrInstESaIS2_EEixEm(ptr noundef nonnull align 8 dereferenceable(24) %0, i64 noundef %1) #1 comdat align 2 {
  %3 = alloca ptr, align 8
  %4 = alloca i64, align 8
  store ptr %0, ptr %3, align 8
  store i64 %1, ptr %4, align 8
  %5 = load ptr, ptr %3, align 8
  %6 = getelementptr inbounds %"struct.std::_Vector_base.1", ptr %5, i32 0, i32 0
  %7 = getelementptr inbounds %"struct.std::_Vector_base<Luau::CodeGen::IrInst, std::allocator<Luau::CodeGen::IrInst>>::_Vector_impl_data", ptr %6, i32 0, i32 0
  %8 = load ptr, ptr %7, align 8
  %9 = load i64, ptr %4, align 8
  %10 = getelementptr inbounds %"struct.Luau::CodeGen::IrInst", ptr %8, i64 %9
  ret ptr %10
}

; Function Attrs: mustprogress uwtable
define dso_local noundef i32 @_ZN4Luau7CodeGen14getNextInstUseERNS0_10IrFunctionEjj(ptr noundef nonnull align 8 dereferenceable(616) %0, i32 noundef %1, i32 noundef %2) #2 {
  %4 = alloca ptr, align 8
  %5 = alloca i32, align 4
  %6 = alloca ptr, align 8
  %7 = alloca i32, align 4
  %8 = alloca i32, align 4
  %9 = alloca ptr, align 8
  %10 = alloca i32, align 4
  %11 = alloca ptr, align 8
  store ptr %0, ptr %6, align 8
  store i32 %1, ptr %7, align 4
  store i32 %2, ptr %8, align 4
  %12 = load ptr, ptr %6, align 8
  %13 = getelementptr inbounds %"struct.Luau::CodeGen::IrFunction", ptr %12, i32 0, i32 1
  %14 = load i32, ptr %7, align 4
  %15 = zext i32 %14 to i64
  %16 = call noundef nonnull align 4 dereferenceable(43) ptr @_ZNSt6vectorIN4Luau7CodeGen6IrInstESaIS2_EEixEm(ptr noundef nonnull align 8 dereferenceable(24) %13, i64 noundef %15) #10
  store ptr %16, ptr %9, align 8
  %17 = load i32, ptr %8, align 4
  store i32 %17, ptr %10, align 4
  br label %18

18:                                               ; preds = %146, %3
  %19 = load i32, ptr %10, align 4
  %20 = load ptr, ptr %9, align 8
  %21 = getelementptr inbounds %"struct.Luau::CodeGen::IrInst", ptr %20, i32 0, i32 9
  %22 = load i32, ptr %21, align 4
  %23 = icmp ule i32 %19, %22
  br i1 %23, label %24, label %149

24:                                               ; preds = %18
  %25 = load ptr, ptr %6, align 8
  %26 = getelementptr inbounds %"struct.Luau::CodeGen::IrFunction", ptr %25, i32 0, i32 1
  %27 = load i32, ptr %10, align 4
  %28 = zext i32 %27 to i64
  %29 = call noundef nonnull align 4 dereferenceable(43) ptr @_ZNSt6vectorIN4Luau7CodeGen6IrInstESaIS2_EEixEm(ptr noundef nonnull align 8 dereferenceable(24) %26, i64 noundef %28) #10
  store ptr %29, ptr %11, align 8
  %30 = load ptr, ptr %11, align 8
  %31 = getelementptr inbounds %"struct.Luau::CodeGen::IrInst", ptr %30, i32 0, i32 0
  %32 = load i8, ptr %31, align 4
  %33 = call noundef zeroext i1 @_ZN4Luau7CodeGen8isPseudoENS0_5IrCmdE(i8 noundef zeroext %32)
  br i1 %33, label %34, label %35

34:                                               ; preds = %24
  br label %146

35:                                               ; preds = %24
  %36 = load ptr, ptr %11, align 8
  %37 = getelementptr inbounds %"struct.Luau::CodeGen::IrInst", ptr %36, i32 0, i32 2
  %38 = load i32, ptr %37, align 4
  %39 = and i32 %38, 15
  %40 = icmp eq i32 %39, 4
  br i1 %40, label %41, label %50

41:                                               ; preds = %35
  %42 = load ptr, ptr %11, align 8
  %43 = getelementptr inbounds %"struct.Luau::CodeGen::IrInst", ptr %42, i32 0, i32 2
  %44 = load i32, ptr %43, align 4
  %45 = lshr i32 %44, 4
  %46 = load i32, ptr %7, align 4
  %47 = icmp eq i32 %45, %46
  br i1 %47, label %48, label %50

48:                                               ; preds = %41
  %49 = load i32, ptr %10, align 4
  store i32 %49, ptr %5, align 4
  br label %153

50:                                               ; preds = %41, %35
  %51 = load ptr, ptr %11, align 8
  %52 = getelementptr inbounds %"struct.Luau::CodeGen::IrInst", ptr %51, i32 0, i32 3
  %53 = load i32, ptr %52, align 4
  %54 = and i32 %53, 15
  %55 = icmp eq i32 %54, 4
  br i1 %55, label %56, label %65

56:                                               ; preds = %50
  %57 = load ptr, ptr %11, align 8
  %58 = getelementptr inbounds %"struct.Luau::CodeGen::IrInst", ptr %57, i32 0, i32 3
  %59 = load i32, ptr %58, align 4
  %60 = lshr i32 %59, 4
  %61 = load i32, ptr %7, align 4
  %62 = icmp eq i32 %60, %61
  br i1 %62, label %63, label %65

63:                                               ; preds = %56
  %64 = load i32, ptr %10, align 4
  store i32 %64, ptr %5, align 4
  br label %153

65:                                               ; preds = %56, %50
  %66 = load ptr, ptr %11, align 8
  %67 = getelementptr inbounds %"struct.Luau::CodeGen::IrInst", ptr %66, i32 0, i32 4
  %68 = load i32, ptr %67, align 4
  %69 = and i32 %68, 15
  %70 = icmp eq i32 %69, 4
  br i1 %70, label %71, label %80

71:                                               ; preds = %65
  %72 = load ptr, ptr %11, align 8
  %73 = getelementptr inbounds %"struct.Luau::CodeGen::IrInst", ptr %72, i32 0, i32 4
  %74 = load i32, ptr %73, align 4
  %75 = lshr i32 %74, 4
  %76 = load i32, ptr %7, align 4
  %77 = icmp eq i32 %75, %76
  br i1 %77, label %78, label %80

78:                                               ; preds = %71
  %79 = load i32, ptr %10, align 4
  store i32 %79, ptr %5, align 4
  br label %153

80:                                               ; preds = %71, %65
  %81 = load ptr, ptr %11, align 8
  %82 = getelementptr inbounds %"struct.Luau::CodeGen::IrInst", ptr %81, i32 0, i32 5
  %83 = load i32, ptr %82, align 4
  %84 = and i32 %83, 15
  %85 = icmp eq i32 %84, 4
  br i1 %85, label %86, label %95

86:                                               ; preds = %80
  %87 = load ptr, ptr %11, align 8
  %88 = getelementptr inbounds %"struct.Luau::CodeGen::IrInst", ptr %87, i32 0, i32 5
  %89 = load i32, ptr %88, align 4
  %90 = lshr i32 %89, 4
  %91 = load i32, ptr %7, align 4
  %92 = icmp eq i32 %90, %91
  br i1 %92, label %93, label %95

93:                                               ; preds = %86
  %94 = load i32, ptr %10, align 4
  store i32 %94, ptr %5, align 4
  br label %153

95:                                               ; preds = %86, %80
  %96 = load ptr, ptr %11, align 8
  %97 = getelementptr inbounds %"struct.Luau::CodeGen::IrInst", ptr %96, i32 0, i32 6
  %98 = load i32, ptr %97, align 4
  %99 = and i32 %98, 15
  %100 = icmp eq i32 %99, 4
  br i1 %100, label %101, label %110

101:                                              ; preds = %95
  %102 = load ptr, ptr %11, align 8
  %103 = getelementptr inbounds %"struct.Luau::CodeGen::IrInst", ptr %102, i32 0, i32 6
  %104 = load i32, ptr %103, align 4
  %105 = lshr i32 %104, 4
  %106 = load i32, ptr %7, align 4
  %107 = icmp eq i32 %105, %106
  br i1 %107, label %108, label %110

108:                                              ; preds = %101
  %109 = load i32, ptr %10, align 4
  store i32 %109, ptr %5, align 4
  br label %153

110:                                              ; preds = %101, %95
  %111 = load ptr, ptr %11, align 8
  %112 = getelementptr inbounds %"struct.Luau::CodeGen::IrInst", ptr %111, i32 0, i32 7
  %113 = load i32, ptr %112, align 4
  %114 = and i32 %113, 15
  %115 = icmp eq i32 %114, 4
  br i1 %115, label %116, label %125

116:                                              ; preds = %110
  %117 = load ptr, ptr %11, align 8
  %118 = getelementptr inbounds %"struct.Luau::CodeGen::IrInst", ptr %117, i32 0, i32 7
  %119 = load i32, ptr %118, align 4
  %120 = lshr i32 %119, 4
  %121 = load i32, ptr %7, align 4
  %122 = icmp eq i32 %120, %121
  br i1 %122, label %123, label %125

123:                                              ; preds = %116
  %124 = load i32, ptr %10, align 4
  store i32 %124, ptr %5, align 4
  br label %153

125:                                              ; preds = %116, %110
  store ptr @_ZN5FFlag16LuauCodegenInstGE, ptr %4, align 8
  %126 = load ptr, ptr %4, align 8
  %127 = load i8, ptr %126, align 8
  %128 = trunc i8 %127 to i1
  br i1 %128, label %129, label %145

129:                                              ; preds = %125
  %130 = load ptr, ptr %11, align 8
  %131 = getelementptr inbounds %"struct.Luau::CodeGen::IrInst", ptr %130, i32 0, i32 8
  %132 = load i32, ptr %131, align 4
  %133 = and i32 %132, 15
  %134 = icmp eq i32 %133, 4
  br i1 %134, label %135, label %144

135:                                              ; preds = %129
  %136 = load ptr, ptr %11, align 8
  %137 = getelementptr inbounds %"struct.Luau::CodeGen::IrInst", ptr %136, i32 0, i32 8
  %138 = load i32, ptr %137, align 4
  %139 = lshr i32 %138, 4
  %140 = load i32, ptr %7, align 4
  %141 = icmp eq i32 %139, %140
  br i1 %141, label %142, label %144

142:                                              ; preds = %135
  %143 = load i32, ptr %10, align 4
  store i32 %143, ptr %5, align 4
  br label %153

144:                                              ; preds = %135, %129
  br label %145

145:                                              ; preds = %144, %125
  br label %146

146:                                              ; preds = %145, %34
  %147 = load i32, ptr %10, align 4
  %148 = add i32 %147, 1
  store i32 %148, ptr %10, align 4
  br label %18, !llvm.loop !8

149:                                              ; preds = %18
  %150 = load ptr, ptr %9, align 8
  %151 = getelementptr inbounds %"struct.Luau::CodeGen::IrInst", ptr %150, i32 0, i32 9
  %152 = load i32, ptr %151, align 4
  store i32 %152, ptr %5, align 4
  br label %153

153:                                              ; preds = %149, %142, %123, %108, %93, %78, %63, %48
  %154 = load i32, ptr %5, align 4
  ret i32 %154
}