; Function Attrs: mustprogress nofree norecurse nosync nounwind willreturn memory(read, inaccessiblemem: none) uwtable
define dso_local noundef i32 @_ZN4Luau7CodeGen14getNextInstUseERNS0_10IrFunctionEjj(ptr nocapture noundef nonnull readonly align 8 dereferenceable(616) %0, i32 noundef %1, i32 noundef %2) local_unnamed_addr #2 {
  %4 = getelementptr inbounds i8, ptr %0, i64 24
  %5 = zext i32 %1 to i64
  %6 = load ptr, ptr %4, align 8
  %7 = getelementptr inbounds %"struct.Luau::CodeGen::IrInst", ptr %6, i64 %5, i32 9
  %8 = load i32, ptr %7, align 4
  %.not54 = icmp ult i32 %8, %2
  br i1 %.not54, label %._crit_edge, label %.lr.ph

.lr.ph:                                           ; preds = %3
  %9 = load i8, ptr @_ZN5FFlag16LuauCodegenInstGE, align 8
  %.fr77 = freeze i8 %9
  %10 = trunc i8 %.fr77 to i1
  br i1 %10, label %.lr.ph.split.us, label %.lr.ph.split

.lr.ph.split.us:                                  ; preds = %.lr.ph, %63
  %.03955.us = phi i32 [ %64, %63 ], [ %2, %.lr.ph ]
  %11 = zext i32 %.03955.us to i64
  %12 = getelementptr inbounds %"struct.Luau::CodeGen::IrInst", ptr %6, i64 %11
  %13 = load i8, ptr %12, align 4
  switch i8 %13, label %14 [
    i8 115, label %63
    i8 0, label %63
  ]

14:                                               ; preds = %.lr.ph.split.us
  %15 = getelementptr inbounds i8, ptr %12, i64 4
  %16 = load i32, ptr %15, align 4
  %17 = and i32 %16, 15
  %18 = icmp eq i32 %17, 4
  %19 = lshr i32 %16, 4
  %20 = icmp eq i32 %19, %1
  %or.cond.us = and i1 %18, %20
  br i1 %or.cond.us, label %._crit_edge, label %21

21:                                               ; preds = %14
  %22 = getelementptr inbounds i8, ptr %12, i64 8
  %23 = load i32, ptr %22, align 4
  %24 = and i32 %23, 15
  %25 = icmp eq i32 %24, 4
  %26 = lshr i32 %23, 4
  %27 = icmp eq i32 %26, %1
  %or.cond43.us = and i1 %25, %27
  br i1 %or.cond43.us, label %._crit_edge, label %28

28:                                               ; preds = %21
  %29 = getelementptr inbounds i8, ptr %12, i64 12
  %30 = load i32, ptr %29, align 4
  %31 = and i32 %30, 15
  %32 = icmp eq i32 %31, 4
  %33 = lshr i32 %30, 4
  %34 = icmp eq i32 %33, %1
  %or.cond45.us = and i1 %32, %34
  br i1 %or.cond45.us, label %._crit_edge, label %35

35:                                               ; preds = %28
  %36 = getelementptr inbounds i8, ptr %12, i64 16
  %37 = load i32, ptr %36, align 4
  %38 = and i32 %37, 15
  %39 = icmp eq i32 %38, 4
  %40 = lshr i32 %37, 4
  %41 = icmp eq i32 %40, %1
  %or.cond47.us = and i1 %39, %41
  br i1 %or.cond47.us, label %._crit_edge, label %42

42:                                               ; preds = %35
  %43 = getelementptr inbounds i8, ptr %12, i64 20
  %44 = load i32, ptr %43, align 4
  %45 = and i32 %44, 15
  %46 = icmp eq i32 %45, 4
  %47 = lshr i32 %44, 4
  %48 = icmp eq i32 %47, %1
  %or.cond49.us = and i1 %46, %48
  br i1 %or.cond49.us, label %._crit_edge, label %49

49:                                               ; preds = %42
  %50 = getelementptr inbounds i8, ptr %12, i64 24
  %51 = load i32, ptr %50, align 4
  %52 = and i32 %51, 15
  %53 = icmp eq i32 %52, 4
  %54 = lshr i32 %51, 4
  %55 = icmp eq i32 %54, %1
  %or.cond51.us = and i1 %53, %55
  br i1 %or.cond51.us, label %._crit_edge, label %56

56:                                               ; preds = %49
  %57 = getelementptr inbounds i8, ptr %12, i64 28
  %58 = load i32, ptr %57, align 4
  %59 = and i32 %58, 15
  %60 = icmp eq i32 %59, 4
  %61 = lshr i32 %58, 4
  %62 = icmp eq i32 %61, %1
  %or.cond53.us = and i1 %60, %62
  br i1 %or.cond53.us, label %._crit_edge, label %63

63:                                               ; preds = %56, %.lr.ph.split.us, %.lr.ph.split.us
  %64 = add i32 %.03955.us, 1
  %.not.us = icmp ugt i32 %64, %8
  br i1 %.not.us, label %._crit_edge, label %.lr.ph.split.us, !llvm.loop !8

.lr.ph.split:                                     ; preds = %.lr.ph, %110
  %.03955 = phi i32 [ %111, %110 ], [ %2, %.lr.ph ]
  %65 = zext i32 %.03955 to i64
  %66 = getelementptr inbounds %"struct.Luau::CodeGen::IrInst", ptr %6, i64 %65
  %67 = load i8, ptr %66, align 4
  switch i8 %67, label %68 [
    i8 115, label %110
    i8 0, label %110
  ]

68:                                               ; preds = %.lr.ph.split
  %69 = getelementptr inbounds i8, ptr %66, i64 4
  %70 = load i32, ptr %69, align 4
  %71 = and i32 %70, 15
  %72 = icmp eq i32 %71, 4
  %73 = lshr i32 %70, 4
  %74 = icmp eq i32 %73, %1
  %or.cond = and i1 %72, %74
  br i1 %or.cond, label %._crit_edge, label %75

75:                                               ; preds = %68
  %76 = getelementptr inbounds i8, ptr %66, i64 8
  %77 = load i32, ptr %76, align 4
  %78 = and i32 %77, 15
  %79 = icmp eq i32 %78, 4
  %80 = lshr i32 %77, 4
  %81 = icmp eq i32 %80, %1
  %or.cond43 = and i1 %79, %81
  br i1 %or.cond43, label %._crit_edge, label %82

82:                                               ; preds = %75
  %83 = getelementptr inbounds i8, ptr %66, i64 12
  %84 = load i32, ptr %83, align 4
  %85 = and i32 %84, 15
  %86 = icmp eq i32 %85, 4
  %87 = lshr i32 %84, 4
  %88 = icmp eq i32 %87, %1
  %or.cond45 = and i1 %86, %88
  br i1 %or.cond45, label %._crit_edge, label %89

89:                                               ; preds = %82
  %90 = getelementptr inbounds i8, ptr %66, i64 16
  %91 = load i32, ptr %90, align 4
  %92 = and i32 %91, 15
  %93 = icmp eq i32 %92, 4
  %94 = lshr i32 %91, 4
  %95 = icmp eq i32 %94, %1
  %or.cond47 = and i1 %93, %95
  br i1 %or.cond47, label %._crit_edge, label %96

96:                                               ; preds = %89
  %97 = getelementptr inbounds i8, ptr %66, i64 20
  %98 = load i32, ptr %97, align 4
  %99 = and i32 %98, 15
  %100 = icmp eq i32 %99, 4
  %101 = lshr i32 %98, 4
  %102 = icmp eq i32 %101, %1
  %or.cond49 = and i1 %100, %102
  br i1 %or.cond49, label %._crit_edge, label %103

103:                                              ; preds = %96
  %104 = getelementptr inbounds i8, ptr %66, i64 24
  %105 = load i32, ptr %104, align 4
  %106 = and i32 %105, 15
  %107 = icmp eq i32 %106, 4
  %108 = lshr i32 %105, 4
  %109 = icmp eq i32 %108, %1
  %or.cond51 = and i1 %107, %109
  br i1 %or.cond51, label %._crit_edge, label %110

110:                                              ; preds = %103, %.lr.ph.split, %.lr.ph.split
  %111 = add i32 %.03955, 1
  %.not = icmp ugt i32 %111, %8
  br i1 %.not, label %._crit_edge, label %.lr.ph.split, !llvm.loop !8

._crit_edge:                                      ; preds = %68, %75, %82, %89, %96, %103, %110, %14, %21, %28, %35, %42, %49, %56, %63, %3
  %.0 = phi i32 [ %8, %3 ], [ %8, %63 ], [ %.03955.us, %56 ], [ %.03955.us, %49 ], [ %.03955.us, %42 ], [ %.03955.us, %35 ], [ %.03955.us, %28 ], [ %.03955.us, %21 ], [ %.03955.us, %14 ], [ %8, %110 ], [ %.03955, %103 ], [ %.03955, %96 ], [ %.03955, %89 ], [ %.03955, %82 ], [ %.03955, %75 ], [ %.03955, %68 ]
  ret i32 %.0
}